; Function Attrs: nounwind uwtable
define hidden void @Curl_cpool_multi_socket(ptr noundef %0, i32 noundef %1, i32 noundef %2) local_unnamed_addr #0 {
  %4 = alloca %struct.easy_pollset, align 4
  %5 = alloca i8, align 1
  %6 = getelementptr inbounds nuw i8, ptr %0, i64 416
  %7 = getelementptr inbounds nuw i8, ptr %0, i64 536
  %8 = load ptr, ptr %7, align 8, !tbaa !3
  call void @llvm.lifetime.start.p0(i64 1, ptr nonnull %5) #8
  %9 = getelementptr inbounds nuw i8, ptr %0, i64 552
  %10 = load ptr, ptr %9, align 8, !tbaa !81
  %.not = icmp eq ptr %10, null
  br i1 %.not, label %17, label %11

11:                                               ; preds = %3
  %12 = getelementptr inbounds nuw i8, ptr %10, i64 4
  %13 = load i32, ptr %12, align 4, !tbaa !89
  %14 = and i32 %13, 32
  %.not33 = icmp eq i32 %14, 0
  br i1 %.not33, label %17, label %15

15:                                               ; preds = %11
  %16 = tail call i32 @Curl_share_lock(ptr noundef %8, i32 noundef 5, i32 noundef 2) #8
  br label %17

17:                                               ; preds = %3, %11, %15
  %18 = getelementptr inbounds nuw i8, ptr %0, i64 568
  %19 = load i8, ptr %18, align 8
  %20 = or i8 %19, 1
  store i8 %20, ptr %18, align 8
  %21 = getelementptr inbounds nuw i8, ptr %0, i64 504
  %22 = tail call ptr @Curl_llist_head(ptr noundef nonnull %21) #8
  %.not3439 = icmp eq ptr %22, null
  br i1 %.not3439, label %.loopexit, label %.lr.ph

.lr.ph:                                           ; preds = %17, %38
  %.040 = phi ptr [ %39, %38 ], [ %22, %17 ]
  %23 = tail call ptr @Curl_node_elem(ptr noundef nonnull %.040) #8
  %24 = getelementptr inbounds nuw i8, ptr %23, i64 568
  %25 = load i32, ptr %24, align 8, !tbaa !114
  %26 = icmp eq i32 %1, %25
  br i1 %26, label %31, label %27

27:                                               ; preds = %.lr.ph
  %28 = getelementptr inbounds nuw i8, ptr %23, i64 572
  %29 = load i32, ptr %28, align 4, !tbaa !114
  %30 = icmp eq i32 %1, %29
  br i1 %30, label %31, label %38

31:                                               ; preds = %27, %.lr.ph
  tail call void @Curl_attach_connection(ptr noundef %8, ptr noundef nonnull %23) #8
  call fastcc void @cpool_run_conn_shutdown(ptr noundef %8, ptr noundef nonnull %23, ptr noundef %5)
  tail call void @Curl_detach_connection(ptr noundef %8) #8
  %32 = load i8, ptr %5, align 1, !tbaa !145, !range !110, !noundef !111
  %33 = trunc nuw i8 %32 to i1
  br i1 %33, label %37, label %34

34:                                               ; preds = %31
  call void @llvm.lifetime.start.p0(i64 32, ptr nonnull %4) #8
  call void @llvm.memset.p0.i64(ptr noundef nonnull align 4 dereferenceable(32) %4, i8 0, i64 32, i1 false)
  tail call void @Curl_attach_connection(ptr noundef %8, ptr noundef nonnull %23) #8
  call void @Curl_conn_adjust_pollset(ptr noundef %8, ptr noundef nonnull %4) #8
  call void @Curl_detach_connection(ptr noundef %8) #8
  %35 = getelementptr inbounds nuw i8, ptr %23, i64 664
  %36 = call i32 @Curl_multi_pollset_ev(ptr noundef %0, ptr noundef %8, ptr noundef nonnull %4, ptr noundef nonnull %35) #8
  %.not.i = icmp eq i32 %36, 0
  br i1 %.not.i, label %cpool_update_shutdown_ev.exit.thread, label %cpool_update_shutdown_ev.exit

cpool_update_shutdown_ev.exit.thread:             ; preds = %34
  call void @llvm.memcpy.p0.p0.i64(ptr noundef nonnull align 8 dereferenceable(32) %35, ptr noundef nonnull align 4 dereferenceable(32) %4, i64 32, i1 false)
  call void @llvm.lifetime.end.p0(i64 32, ptr nonnull %4) #8
  br label %.loopexit

cpool_update_shutdown_ev.exit:                    ; preds = %34
  call void @llvm.lifetime.end.p0(i64 32, ptr nonnull %4) #8
  br label %37

37:                                               ; preds = %cpool_update_shutdown_ev.exit, %31
  call void @Curl_node_remove(ptr noundef nonnull %.040) #8
  call fastcc void @cpool_close_and_destroy(ptr noundef nonnull %6, ptr noundef nonnull %23, ptr noundef null, i1 noundef zeroext false)
  br label %.loopexit

38:                                               ; preds = %27
  %39 = tail call ptr @Curl_node_next(ptr noundef nonnull %.040) #8
  %.not34 = icmp eq ptr %39, null
  br i1 %.not34, label %.loopexit, label %.lr.ph, !llvm.loop !159

.loopexit:                                        ; preds = %38, %17, %cpool_update_shutdown_ev.exit.thread, %37
  %40 = load i8, ptr %18, align 8
  %41 = and i8 %40, -2
  store i8 %41, ptr %18, align 8
  %42 = load ptr, ptr %9, align 8, !tbaa !81
  %.not36 = icmp eq ptr %42, null
  br i1 %.not36, label %50, label %43

43:                                               ; preds = %.loopexit
  %44 = getelementptr inbounds nuw i8, ptr %42, i64 4
  %45 = load i32, ptr %44, align 4, !tbaa !89
  %46 = and i32 %45, 32
  %.not37 = icmp eq i32 %46, 0
  br i1 %.not37, label %50, label %47

47:                                               ; preds = %43
  %48 = load ptr, ptr %7, align 8, !tbaa !3
  %49 = call i32 @Curl_share_unlock(ptr noundef %48, i32 noundef 5) #8
  br label %50

50:                                               ; preds = %.loopexit, %43, %47
  call void @llvm.lifetime.end.p0(i64 1, ptr nonnull %5) #8
  ret void
}